target datalayout = "e-m:e-p270:32:32-p271:32:32-p272:64:64-i64:64-i128:128-f80:128-n8:16:32:64-S128"
target triple = "x86_64-pc-linux-gnu"

@.str.41 = private unnamed_addr constant [8 x i8] c"DFilter\00", align 1
@.str.46 = private unnamed_addr constant [7 x i8] c"%s:\0A%s\00", align 1
@.str.54 = private unnamed_addr constant [6 x i8] c"% 2d \00", align 1

; Function Attrs: null_pointer_is_valid sspstrong uwtable
define internal void @indent(ptr noundef %0, i32 noundef %1) #0 {
  %3 = alloca ptr, align 8
  %4 = alloca i32, align 4
  %5 = alloca i32, align 4
  store ptr %0, ptr %3, align 8
  store i32 %1, ptr %4, align 4
  call void @llvm.lifetime.start.p0(i64 4, ptr %5) #9
  store i32 0, ptr %5, align 4
  br label %6

6:                                                ; preds = %14, %2
  %7 = load i32, ptr %5, align 4
  %8 = load i32, ptr %4, align 4
  %9 = mul i32 %8, 2
  %10 = icmp slt i32 %7, %9
  br i1 %10, label %12, label %11

11:                                               ; preds = %6
  call void @llvm.lifetime.end.p0(i64 4, ptr %5) #9
  br label %17

12:                                               ; preds = %6
  %13 = load ptr, ptr %3, align 8
  call void @wmem_strbuf_append_c(ptr noundef %13, i8 noundef signext 32)
  br label %14

14:                                               ; preds = %12
  %15 = load i32, ptr %5, align 4
  %16 = add i32 %15, 1
  store i32 %16, ptr %5, align 4
  br label %6, !llvm.loop !8

17:                                               ; preds = %11
  %18 = load ptr, ptr %3, align 8
  %19 = load i32, ptr %4, align 4
  call void (ptr, ptr, ...) @wmem_strbuf_append_printf(ptr noundef %18, ptr noundef @.str.54, i32 noundef %19)
  ret void
}

; Function Attrs: null_pointer_is_valid sspstrong uwtable
define hidden ptr @dump_syntax_tree_str(ptr noundef %0) #0 {
  %2 = alloca ptr, align 8
  %3 = alloca ptr, align 8
  store ptr %0, ptr %2, align 8
  call void @llvm.lifetime.start.p0(i64 8, ptr %3) #9
  %4 = call noalias ptr @wmem_strbuf_new(ptr noundef null, ptr noundef null)
  store ptr %4, ptr %3, align 8
  %5 = load ptr, ptr %3, align 8
  call void @indent(ptr noundef %5, i32 noundef 0)
  %6 = load ptr, ptr %3, align 8
  %7 = load ptr, ptr %2, align 8
  call void @visit_tree(ptr noundef %6, ptr noundef %7, i32 noundef 0)
  %8 = load ptr, ptr %3, align 8
  %9 = call ptr @wmem_strbuf_finalize(ptr noundef %8)
  call void @llvm.lifetime.end.p0(i64 8, ptr %3) #9
  ret ptr %9
}

; Function Attrs: null_pointer_is_valid sspstrong uwtable
define hidden void @log_syntax_tree(i32 noundef %0, ptr noundef %1, ptr noundef %2, ptr noundef %3) #0 {
  %5 = alloca i32, align 4
  %6 = alloca ptr, align 8
  %7 = alloca ptr, align 8
  %8 = alloca ptr, align 8
  %9 = alloca ptr, align 8
  store i32 %0, ptr %5, align 4
  store ptr %1, ptr %6, align 8
  store ptr %2, ptr %7, align 8
  store ptr %3, ptr %8, align 8
  %10 = load i32, ptr %5, align 4
  %11 = call zeroext i1 @ws_log_msg_is_active(ptr noundef @.str.41, i32 noundef %10)
  br i1 %11, label %13, label %12

12:                                               ; preds = %4
  br label %27

13:                                               ; preds = %4
  call void @llvm.lifetime.start.p0(i64 8, ptr %9) #9
  %14 = load ptr, ptr %6, align 8
  %15 = call ptr @dump_syntax_tree_str(ptr noundef %14)
  store ptr %15, ptr %9, align 8
  %16 = load i32, ptr %5, align 4
  %17 = load ptr, ptr %7, align 8
  %18 = load ptr, ptr %9, align 8
  call void (ptr, i32, ptr, i64, ptr, ptr, ...) @ws_log_write_always_full(ptr noundef @.str.41, i32 noundef %16, ptr noundef null, i64 noundef -1, ptr noundef null, ptr noundef @.str.46, ptr noundef %17, ptr noundef %18)
  %19 = load ptr, ptr %8, align 8
  %20 = icmp ne ptr %19, null
  br i1 %20, label %21, label %24

21:                                               ; preds = %13
  %22 = load ptr, ptr %9, align 8
  %23 = load ptr, ptr %8, align 8
  store ptr %22, ptr %23, align 8
  br label %26

24:                                               ; preds = %13
  %25 = load ptr, ptr %9, align 8
  call void @g_free(ptr noundef %25)
  br label %26

26:                                               ; preds = %24, %21
  call void @llvm.lifetime.end.p0(i64 8, ptr %9) #9
  br label %27

27:                                               ; preds = %26, %12
  ret void
}