; Function Attrs: null_pointer_is_valid sspstrong uwtable
define hidden void @log_syntax_tree(i32 noundef %0, ptr noundef %1, ptr noundef %2, ptr noundef writeonly captures(address_is_null) %3) local_unnamed_addr #0 {
  %5 = tail call zeroext i1 @ws_log_msg_is_active(ptr noundef nonnull @.str.41, i32 noundef %0)
  br i1 %5, label %6, label %11

6:                                                ; preds = %4
  %7 = tail call noalias ptr @wmem_strbuf_new(ptr noundef null, ptr noundef null)
  tail call void (ptr, ptr, ...) @wmem_strbuf_append_printf(ptr noundef %7, ptr noundef nonnull @.str.54, i32 noundef 0)
  tail call fastcc void @visit_tree(ptr noundef %7, ptr noundef %1, i32 noundef 0)
  %8 = tail call ptr @wmem_strbuf_finalize(ptr noundef %7)
  tail call void (ptr, i32, ptr, i64, ptr, ptr, ...) @ws_log_write_always_full(ptr noundef nonnull @.str.41, i32 noundef %0, ptr noundef null, i64 noundef -1, ptr noundef null, ptr noundef nonnull @.str.46, ptr noundef %2, ptr noundef %8)
  %.not = icmp eq ptr %3, null
  br i1 %.not, label %10, label %9

9:                                                ; preds = %6
  store ptr %8, ptr %3, align 8
  br label %11

10:                                               ; preds = %6
  tail call void @g_free(ptr noundef %8)
  br label %11

11:                                               ; preds = %9, %10, %4
  ret void
}